---
triple:          'arm64-apple-darwin'
binary-path:     '/Users/isaacng/Library/Developer/Xcode/DerivedData/Runner-dxvqxmhdbqvciuajmbesssxpovoj/Build/Intermediates.noindex/ArchiveIntermediates/Runner/IntermediateBuildFilesPath/UninstalledProducts/iphoneos/media_kit_native_event_loop.framework/media_kit_native_event_loop'
relocations:
  - { offsetInCU: 0x33, offset: 0x1CC35, size: 0x8, addend: 0x0, symName: _media_kit_native_event_loopVersionString, symObjAddr: 0x0, symBinAddr: 0x8588, symSize: 0x0 }
  - { offsetInCU: 0x67, offset: 0x1CC69, size: 0x8, addend: 0x0, symName: _media_kit_native_event_loopVersionNumber, symObjAddr: 0x40, symBinAddr: 0x85C8, symSize: 0x0 }
  - { offsetInCU: 0xEF6B, offset: 0x2BBE9, size: 0x8, addend: 0x0, symName: __ZNSt3__1L19piecewise_constructE, symObjAddr: 0x40A0, symBinAddr: 0x85D0, symSize: 0x0 }
  - { offsetInCU: 0x1219B, offset: 0x2EE19, size: 0x8, addend: 0x0, symName: __ZNSt3__124__put_character_sequenceB8ue170006IcNS_11char_traitsIcEEEERNS_13basic_ostreamIT_T0_EES7_PKS4_m, symObjAddr: 0x1E20, symBinAddr: 0x5E20, symSize: 0x164 }
  - { offsetInCU: 0x17F74, offset: 0x34BF2, size: 0x8, addend: 0x0, symName: __ZNSt3__1lsB8ue170006IcNS_11char_traitsIcEEEERNS_13basic_ostreamIT_T0_EES7_RKNS_10error_codeE, symObjAddr: 0x714, symBinAddr: 0x4714, symSize: 0x74 }
  - { offsetInCU: 0x180DA, offset: 0x34D58, size: 0x8, addend: 0x0, symName: __ZNSt3__14endlB8ue170006IcNS_11char_traitsIcEEEERNS_13basic_ostreamIT_T0_EES7_, symObjAddr: 0x788, symBinAddr: 0x4788, symSize: 0x90 }
  - { offsetInCU: 0x18616, offset: 0x35294, size: 0x8, addend: 0x0, symName: __ZNSt3__119__allocate_at_leastB8ue170006INS_9allocatorIP10mpv_handleEEEENS_19__allocation_resultINS_16allocator_traitsIT_E7pointerEEERS7_m, symObjAddr: 0x3B3C, symBinAddr: 0x7B3C, symSize: 0x34 }
  - { offsetInCU: 0x186BE, offset: 0x3533C, size: 0x8, addend: 0x0, symName: __ZNSt3__112__hash_tableINS_17__hash_value_typeIP10mpv_handleNS_10unique_ptrINS_5mutexENS_14default_deleteIS5_EEEEEENS_22__unordered_map_hasherIS3_S9_NS_4hashIS3_EENS_8equal_toIS3_EELb1EEENS_21__unordered_map_equalIS3_S9_SE_SC_Lb1EEENS_9allocatorIS9_EEED2Ev, symObjAddr: 0x3B70, symBinAddr: 0x7B70, symSize: 0x38 }
  - { offsetInCU: 0x18806, offset: 0x35484, size: 0x8, addend: 0x0, symName: __ZNSt3__116__pad_and_outputB8ue170006IcNS_11char_traitsIcEEEENS_19ostreambuf_iteratorIT_T0_EES6_PKS4_S8_S8_RNS_8ios_baseES4_, symObjAddr: 0x1F84, symBinAddr: 0x5F84, symSize: 0x13C }
  - { offsetInCU: 0x18E50, offset: 0x35ACE, size: 0x8, addend: 0x0, symName: __ZNSt3__120__throw_length_errorB8ue170006EPKc, symObjAddr: 0x216C, symBinAddr: 0x616C, symSize: 0x50 }
  - { offsetInCU: 0x19059, offset: 0x35CD7, size: 0x8, addend: 0x0, symName: '__ZNSt3__114__thread_proxyB8ue170006INS_5tupleIJNS_10unique_ptrINS_15__thread_structENS_14default_deleteIS3_EEEEZN24MediaKitEventLoopHandler8RegisterExPvxE3$_0EEEEES8_S8_', symObjAddr: 0x21E0, symBinAddr: 0x61E0, symSize: 0x64 }
  - { offsetInCU: 0x19360, offset: 0x35FDE, size: 0x8, addend: 0x0, symName: '__ZNSt3__114__thread_proxyB8ue170006INS_5tupleIJNS_10unique_ptrINS_15__thread_structENS_14default_deleteIS3_EEEEZN24MediaKitEventLoopHandler7DisposeExbE3$_1EEEEEPvSA_', symObjAddr: 0x3248, symBinAddr: 0x7248, symSize: 0xCC }
  - { offsetInCU: 0x19B96, offset: 0x36814, size: 0x8, addend: 0x0, symName: __ZSt28__throw_bad_array_new_lengthB8ue170006v, symObjAddr: 0x1064, symBinAddr: 0x5064, symSize: 0x28 }
  - { offsetInCU: 0x1B604, offset: 0x38282, size: 0x8, addend: 0x0, symName: __ZN24MediaKitEventLoopHandler11GetInstanceEv, symObjAddr: 0x0, symBinAddr: 0x4000, symSize: 0x90 }
  - { offsetInCU: 0x1B626, offset: 0x382A4, size: 0x8, addend: 0x0, symName: __ZZN24MediaKitEventLoopHandler11GetInstanceEvE8instance, symObjAddr: 0xBD8E8, symBinAddr: 0xC328, symSize: 0x0 }
  - { offsetInCU: 0x1BD01, offset: 0x3897F, size: 0x8, addend: 0x0, symName: __ZN24MediaKitEventLoopHandler8RegisterExPvx, symObjAddr: 0x98, symBinAddr: 0x4098, symSize: 0x270 }
  - { offsetInCU: 0x1CE37, offset: 0x39AB5, size: 0x8, addend: 0x0, symName: __ZN24MediaKitEventLoopHandler7DisposeExb, symObjAddr: 0x478, symBinAddr: 0x4478, symSize: 0x29C }
  - { offsetInCU: 0x1FB68, offset: 0x3C7E6, size: 0x8, addend: 0x0, symName: __ZN24MediaKitEventLoopHandlerC2Ev, symObjAddr: 0x9B4, symBinAddr: 0x49B4, symSize: 0xCC }
  - { offsetInCU: 0x203E3, offset: 0x3D061, size: 0x8, addend: 0x0, symName: __ZN24MediaKitEventLoopHandlerC1Ev, symObjAddr: 0x90, symBinAddr: 0x4090, symSize: 0x4 }
  - { offsetInCU: 0x20407, offset: 0x3D085, size: 0x8, addend: 0x0, symName: __ZN24MediaKitEventLoopHandlerC1Ev, symObjAddr: 0x90, symBinAddr: 0x4090, symSize: 0x4 }
  - { offsetInCU: 0x2041B, offset: 0x3D099, size: 0x8, addend: 0x0, symName: __ZN24MediaKitEventLoopHandlerD1Ev, symObjAddr: 0x94, symBinAddr: 0x4094, symSize: 0x4 }
  - { offsetInCU: 0x20449, offset: 0x3D0C7, size: 0x8, addend: 0x0, symName: __ZN24MediaKitEventLoopHandlerD1Ev, symObjAddr: 0x94, symBinAddr: 0x4094, symSize: 0x4 }
  - { offsetInCU: 0x2045D, offset: 0x3D0DB, size: 0x8, addend: 0x0, symName: __ZN24MediaKitEventLoopHandlerD2Ev, symObjAddr: 0xA80, symBinAddr: 0x4A80, symSize: 0x18C }
  - { offsetInCU: 0x21BE2, offset: 0x3E860, size: 0x8, addend: 0x0, symName: __ZN24MediaKitEventLoopHandler12IsRegisteredEx, symObjAddr: 0x308, symBinAddr: 0x4308, symSize: 0x9C }
  - { offsetInCU: 0x21DD2, offset: 0x3EA50, size: 0x8, addend: 0x0, symName: __ZNSt3__112__hash_tableINS_17__hash_value_typeIP10mpv_handleNS_10unique_ptrINS_5mutexENS_14default_deleteIS5_EEEEEENS_22__unordered_map_hasherIS3_S9_NS_4hashIS3_EENS_8equal_toIS3_EELb1EEENS_21__unordered_map_equalIS3_S9_SE_SC_Lb1EEENS_9allocatorIS9_EEE4findIS3_EENS_15__hash_iteratorIPNS_11__hash_nodeIS9_PvEEEERKT_, symObjAddr: 0xCC8, symBinAddr: 0x4CC8, symSize: 0xEC }
  - { offsetInCU: 0x21E2E, offset: 0x3EAAC, size: 0x8, addend: 0x0, symName: __ZNSt3__112__hash_tableINS_17__hash_value_typeIP10mpv_handleNS_10unique_ptrINS_5mutexENS_14default_deleteIS5_EEEEEENS_22__unordered_map_hasherIS3_S9_NS_4hashIS3_EENS_8equal_toIS3_EELb1EEENS_21__unordered_map_equalIS3_S9_SE_SC_Lb1EEENS_9allocatorIS9_EEE4findIS3_EENS_15__hash_iteratorIPNS_11__hash_nodeIS9_PvEEEERKT_, symObjAddr: 0xCC8, symBinAddr: 0x4CC8, symSize: 0xEC }
  - { offsetInCU: 0x21E4C, offset: 0x3EACA, size: 0x8, addend: 0x0, symName: __ZNSt3__112__hash_tableINS_17__hash_value_typeIP10mpv_handleNS_10unique_ptrINS_5mutexENS_14default_deleteIS5_EEEEEENS_22__unordered_map_hasherIS3_S9_NS_4hashIS3_EENS_8equal_toIS3_EELb1EEENS_21__unordered_map_equalIS3_S9_SE_SC_Lb1EEENS_9allocatorIS9_EEE4findIS3_EENS_15__hash_iteratorIPNS_11__hash_nodeIS9_PvEEEERKT_, symObjAddr: 0xCC8, symBinAddr: 0x4CC8, symSize: 0xEC }
  - { offsetInCU: 0x21F77, offset: 0x3EBF5, size: 0x8, addend: 0x0, symName: __ZNSt3__112__hash_tableINS_17__hash_value_typeIP10mpv_handleNS_10unique_ptrINS_5mutexENS_14default_deleteIS5_EEEEEENS_22__unordered_map_hasherIS3_S9_NS_4hashIS3_EENS_8equal_toIS3_EELb1EEENS_21__unordered_map_equalIS3_S9_SE_SC_Lb1EEENS_9allocatorIS9_EEE25__emplace_unique_key_argsIS3_JNS_4pairIS3_S8_EEEEENSM_INS_15__hash_iteratorIPNS_11__hash_nodeIS9_PvEEEEbEERKT_DpOT0_, symObjAddr: 0xDE0, symBinAddr: 0x4DE0, symSize: 0x284 }
  - { offsetInCU: 0x22745, offset: 0x3F3C3, size: 0x8, addend: 0x0, symName: __ZNSt3__112__hash_tableINS_17__hash_value_typeIP10mpv_handleNS_10unique_ptrINS_18condition_variableENS_14default_deleteIS5_EEEEEENS_22__unordered_map_hasherIS3_S9_NS_4hashIS3_EENS_8equal_toIS3_EELb1EEENS_21__unordered_map_equalIS3_S9_SE_SC_Lb1EEENS_9allocatorIS9_EEE4findIS3_EENS_15__hash_iteratorIPNS_11__hash_nodeIS9_PvEEEERKT_, symObjAddr: 0x1304, symBinAddr: 0x5304, symSize: 0xEC }
  - { offsetInCU: 0x227A1, offset: 0x3F41F, size: 0x8, addend: 0x0, symName: __ZNSt3__112__hash_tableINS_17__hash_value_typeIP10mpv_handleNS_10unique_ptrINS_18condition_variableENS_14default_deleteIS5_EEEEEENS_22__unordered_map_hasherIS3_S9_NS_4hashIS3_EENS_8equal_toIS3_EELb1EEENS_21__unordered_map_equalIS3_S9_SE_SC_Lb1EEENS_9allocatorIS9_EEE4findIS3_EENS_15__hash_iteratorIPNS_11__hash_nodeIS9_PvEEEERKT_, symObjAddr: 0x1304, symBinAddr: 0x5304, symSize: 0xEC }
  - { offsetInCU: 0x227BF, offset: 0x3F43D, size: 0x8, addend: 0x0, symName: __ZNSt3__112__hash_tableINS_17__hash_value_typeIP10mpv_handleNS_10unique_ptrINS_18condition_variableENS_14default_deleteIS5_EEEEEENS_22__unordered_map_hasherIS3_S9_NS_4hashIS3_EENS_8equal_toIS3_EELb1EEENS_21__unordered_map_equalIS3_S9_SE_SC_Lb1EEENS_9allocatorIS9_EEE4findIS3_EENS_15__hash_iteratorIPNS_11__hash_nodeIS9_PvEEEERKT_, symObjAddr: 0x1304, symBinAddr: 0x5304, symSize: 0xEC }
  - { offsetInCU: 0x228EA, offset: 0x3F568, size: 0x8, addend: 0x0, symName: __ZNSt3__112__hash_tableINS_17__hash_value_typeIP10mpv_handleNS_10unique_ptrINS_18condition_variableENS_14default_deleteIS5_EEEEEENS_22__unordered_map_hasherIS3_S9_NS_4hashIS3_EENS_8equal_toIS3_EELb1EEENS_21__unordered_map_equalIS3_S9_SE_SC_Lb1EEENS_9allocatorIS9_EEE25__emplace_unique_key_argsIS3_JNS_4pairIS3_S8_EEEEENSM_INS_15__hash_iteratorIPNS_11__hash_nodeIS9_PvEEEEbEERKT_DpOT0_, symObjAddr: 0x141C, symBinAddr: 0x541C, symSize: 0x284 }
  - { offsetInCU: 0x23122, offset: 0x3FDA0, size: 0x8, addend: 0x0, symName: '__ZNSt3__110unique_ptrINS_5tupleIJNS0_INS_15__thread_structENS_14default_deleteIS2_EEEEZN24MediaKitEventLoopHandler8RegisterExPvxE3$_0EEENS3_IS9_EEED1B8ue170006Ev', symObjAddr: 0x2244, symBinAddr: 0x6244, symSize: 0x40 }
  - { offsetInCU: 0x232B7, offset: 0x3FF35, size: 0x8, addend: 0x0, symName: __ZNSt3__112__hash_tableINS_17__hash_value_typeIP10mpv_handleNS_10unique_ptrINS_6threadENS_14default_deleteIS5_EEEEEENS_22__unordered_map_hasherIS3_S9_NS_4hashIS3_EENS_8equal_toIS3_EELb1EEENS_21__unordered_map_equalIS3_S9_SE_SC_Lb1EEENS_9allocatorIS9_EEE25__emplace_unique_key_argsIS3_JNS_4pairIS3_S8_EEEEENSM_INS_15__hash_iteratorIPNS_11__hash_nodeIS9_PvEEEEbEERKT_DpOT0_, symObjAddr: 0x2644, symBinAddr: 0x6644, symSize: 0x284 }
  - { offsetInCU: 0x23AB4, offset: 0x40732, size: 0x8, addend: 0x0, symName: __ZNSt3__112__hash_tableINS_17__hash_value_typeIP10mpv_handleNS_10unique_ptrINS_6threadENS_14default_deleteIS5_EEEEEENS_22__unordered_map_hasherIS3_S9_NS_4hashIS3_EENS_8equal_toIS3_EELb1EEENS_21__unordered_map_equalIS3_S9_SE_SC_Lb1EEENS_9allocatorIS9_EEE4findIS3_EENS_15__hash_iteratorIPNS_11__hash_nodeIS9_PvEEEERKT_, symObjAddr: 0x3548, symBinAddr: 0x7548, symSize: 0xEC }
  - { offsetInCU: 0x23B10, offset: 0x4078E, size: 0x8, addend: 0x0, symName: __ZNSt3__112__hash_tableINS_17__hash_value_typeIP10mpv_handleNS_10unique_ptrINS_6threadENS_14default_deleteIS5_EEEEEENS_22__unordered_map_hasherIS3_S9_NS_4hashIS3_EENS_8equal_toIS3_EELb1EEENS_21__unordered_map_equalIS3_S9_SE_SC_Lb1EEENS_9allocatorIS9_EEE4findIS3_EENS_15__hash_iteratorIPNS_11__hash_nodeIS9_PvEEEERKT_, symObjAddr: 0x3548, symBinAddr: 0x7548, symSize: 0xEC }
  - { offsetInCU: 0x23B2E, offset: 0x407AC, size: 0x8, addend: 0x0, symName: __ZNSt3__112__hash_tableINS_17__hash_value_typeIP10mpv_handleNS_10unique_ptrINS_6threadENS_14default_deleteIS5_EEEEEENS_22__unordered_map_hasherIS3_S9_NS_4hashIS3_EENS_8equal_toIS3_EELb1EEENS_21__unordered_map_equalIS3_S9_SE_SC_Lb1EEENS_9allocatorIS9_EEE4findIS3_EENS_15__hash_iteratorIPNS_11__hash_nodeIS9_PvEEEERKT_, symObjAddr: 0x3548, symBinAddr: 0x7548, symSize: 0xEC }
  - { offsetInCU: 0x23D5E, offset: 0x409DC, size: 0x8, addend: 0x0, symName: __ZN24MediaKitEventLoopHandler6NotifyEx, symObjAddr: 0x3A4, symBinAddr: 0x43A4, symSize: 0xD4 }
  - { offsetInCU: 0x24016, offset: 0x40C94, size: 0x8, addend: 0x0, symName: __ZNSt3__112__hash_tableINS_17__hash_value_typeIP10mpv_handleNS_10unique_ptrINS_5mutexENS_14default_deleteIS5_EEEEEENS_22__unordered_map_hasherIS3_S9_NS_4hashIS3_EENS_8equal_toIS3_EELb1EEENS_21__unordered_map_equalIS3_S9_SE_SC_Lb1EEENS_9allocatorIS9_EEE25__emplace_unique_key_argsIS3_JRKNS_21piecewise_construct_tENS_5tupleIJRKS3_EEENSP_IJEEEEEENS_4pairINS_15__hash_iteratorIPNS_11__hash_nodeIS9_PvEEEEbEERKT_DpOT0_, symObjAddr: 0x1918, symBinAddr: 0x5918, symSize: 0x284 }
  - { offsetInCU: 0x2480A, offset: 0x41488, size: 0x8, addend: 0x0, symName: __ZNSt3__112__hash_tableINS_17__hash_value_typeIP10mpv_handleNS_10unique_ptrINS_18condition_variableENS_14default_deleteIS5_EEEEEENS_22__unordered_map_hasherIS3_S9_NS_4hashIS3_EENS_8equal_toIS3_EELb1EEENS_21__unordered_map_equalIS3_S9_SE_SC_Lb1EEENS_9allocatorIS9_EEE25__emplace_unique_key_argsIS3_JRKNS_21piecewise_construct_tENS_5tupleIJRKS3_EEENSP_IJEEEEEENS_4pairINS_15__hash_iteratorIPNS_11__hash_nodeIS9_PvEEEEbEERKT_DpOT0_, symObjAddr: 0x1B9C, symBinAddr: 0x5B9C, symSize: 0x284 }
  - { offsetInCU: 0x256B2, offset: 0x42330, size: 0x8, addend: 0x0, symName: __ZNSt3__112__hash_tableIP10mpv_handleNS_4hashIS2_EENS_8equal_toIS2_EENS_9allocatorIS2_EEE25__emplace_unique_key_argsIS2_JRKS2_EEENS_4pairINS_15__hash_iteratorIPNS_11__hash_nodeIS2_PvEEEEbEERKT_DpOT0_, symObjAddr: 0x2B40, symBinAddr: 0x6B40, symSize: 0x250 }
  - { offsetInCU: 0x25D5E, offset: 0x429DC, size: 0x8, addend: 0x0, symName: __ZNSt3__112__hash_tableINS_17__hash_value_typeIP10mpv_handleNS_10unique_ptrINS_6threadENS_14default_deleteIS5_EEEEEENS_22__unordered_map_hasherIS3_S9_NS_4hashIS3_EENS_8equal_toIS3_EELb1EEENS_21__unordered_map_equalIS3_S9_SE_SC_Lb1EEENS_9allocatorIS9_EEE25__emplace_unique_key_argsIS3_JRKNS_21piecewise_construct_tENS_5tupleIJRKS3_EEENSP_IJEEEEEENS_4pairINS_15__hash_iteratorIPNS_11__hash_nodeIS9_PvEEEEbEERKT_DpOT0_, symObjAddr: 0x2FC4, symBinAddr: 0x6FC4, symSize: 0x284 }
  - { offsetInCU: 0x26552, offset: 0x431D0, size: 0x8, addend: 0x0, symName: '__ZNSt3__110unique_ptrINS_5tupleIJNS0_INS_15__thread_structENS_14default_deleteIS2_EEEEZN24MediaKitEventLoopHandler7DisposeExbE3$_1EEENS3_IS8_EEED1B8ue170006Ev', symObjAddr: 0x3314, symBinAddr: 0x7314, symSize: 0x40 }
  - { offsetInCU: 0x26BDB, offset: 0x43859, size: 0x8, addend: 0x0, symName: __ZN24MediaKitEventLoopHandler10InitializeEv, symObjAddr: 0x824, symBinAddr: 0x4824, symSize: 0x190 }
  - { offsetInCU: 0x274D4, offset: 0x44152, size: 0x8, addend: 0x0, symName: __ZNKSt3__16vectorIP10mpv_handleNS_9allocatorIS2_EEE20__throw_length_errorB8ue170006Ev, symObjAddr: 0x3B28, symBinAddr: 0x7B28, symSize: 0x14 }
  - { offsetInCU: 0x274FE, offset: 0x4417C, size: 0x8, addend: 0x0, symName: __ZNSt3__119__allocate_at_leastB8ue170006INS_9allocatorIP10mpv_handleEEEENS_19__allocation_resultINS_16allocator_traitsIT_E7pointerEEERS7_m, symObjAddr: 0x3B3C, symBinAddr: 0x7B3C, symSize: 0x34 }
  - { offsetInCU: 0x27CFF, offset: 0x4497D, size: 0x8, addend: 0x0, symName: __ZNSt3__112__hash_tableIP10mpv_handleNS_4hashIS2_EENS_8equal_toIS2_EENS_9allocatorIS2_EEED2Ev, symObjAddr: 0x3CD8, symBinAddr: 0x7CD8, symSize: 0x48 }
  - { offsetInCU: 0x27FB1, offset: 0x44C2F, size: 0x8, addend: 0x0, symName: __ZNSt3__112__hash_tableINS_17__hash_value_typeIP10mpv_handleNS_10unique_ptrINS_18condition_variableENS_14default_deleteIS5_EEEEEENS_22__unordered_map_hasherIS3_S9_NS_4hashIS3_EENS_8equal_toIS3_EELb1EEENS_21__unordered_map_equalIS3_S9_SE_SC_Lb1EEENS_9allocatorIS9_EEED2Ev, symObjAddr: 0x3C60, symBinAddr: 0x7C60, symSize: 0x38 }
  - { offsetInCU: 0x28141, offset: 0x44DBF, size: 0x8, addend: 0x0, symName: __ZNSt3__112__hash_tableINS_17__hash_value_typeIP10mpv_handleNS_10unique_ptrINS_6threadENS_14default_deleteIS5_EEEEEENS_22__unordered_map_hasherIS3_S9_NS_4hashIS3_EENS_8equal_toIS3_EELb1EEENS_21__unordered_map_equalIS3_S9_SE_SC_Lb1EEENS_9allocatorIS9_EEED2Ev, symObjAddr: 0x3BE8, symBinAddr: 0x7BE8, symSize: 0x38 }
  - { offsetInCU: 0x282D1, offset: 0x44F4F, size: 0x8, addend: 0x0, symName: __ZNSt3__112__hash_tableINS_17__hash_value_typeIP10mpv_handleNS_10unique_ptrINS_5mutexENS_14default_deleteIS5_EEEEEENS_22__unordered_map_hasherIS3_S9_NS_4hashIS3_EENS_8equal_toIS3_EELb1EEENS_21__unordered_map_equalIS3_S9_SE_SC_Lb1EEENS_9allocatorIS9_EEED2Ev, symObjAddr: 0x3B70, symBinAddr: 0x7B70, symSize: 0x38 }
  - { offsetInCU: 0x28461, offset: 0x450DF, size: 0x8, addend: 0x0, symName: _MediaKitEventLoopHandlerRegister, symObjAddr: 0xC0C, symBinAddr: 0x4C0C, symSize: 0x44 }
  - { offsetInCU: 0x284DA, offset: 0x45158, size: 0x8, addend: 0x0, symName: _MediaKitEventLoopHandlerNotify, symObjAddr: 0xC50, symBinAddr: 0x4C50, symSize: 0x2C }
  - { offsetInCU: 0x28525, offset: 0x451A3, size: 0x8, addend: 0x0, symName: _MediaKitEventLoopHandlerDispose, symObjAddr: 0xC7C, symBinAddr: 0x4C7C, symSize: 0x30 }
  - { offsetInCU: 0x28576, offset: 0x451F4, size: 0x8, addend: 0x0, symName: _MediaKitEventLoopHandlerInitialize, symObjAddr: 0xCAC, symBinAddr: 0x4CAC, symSize: 0x1C }
  - { offsetInCU: 0x2868C, offset: 0x4530A, size: 0x8, addend: 0x0, symName: __ZNSt3__110unique_ptrINS_5mutexENS_14default_deleteIS1_EEE5resetB8ue170006EPS1_, symObjAddr: 0xDB4, symBinAddr: 0x4DB4, symSize: 0x2C }
  - { offsetInCU: 0x28D09, offset: 0x45987, size: 0x8, addend: 0x0, symName: __ZNSt3__112__hash_tableINS_17__hash_value_typeIP10mpv_handleNS_10unique_ptrINS_5mutexENS_14default_deleteIS5_EEEEEENS_22__unordered_map_hasherIS3_S9_NS_4hashIS3_EENS_8equal_toIS3_EELb1EEENS_21__unordered_map_equalIS3_S9_SE_SC_Lb1EEENS_9allocatorIS9_EEE8__rehashILb1EEEvm, symObjAddr: 0x108C, symBinAddr: 0x508C, symSize: 0xDC }
  - { offsetInCU: 0x28DFC, offset: 0x45A7A, size: 0x8, addend: 0x0, symName: __ZNSt3__122__hash_node_destructorINS_9allocatorINS_11__hash_nodeINS_17__hash_value_typeIP10mpv_handleNS_10unique_ptrINS_5mutexENS_14default_deleteIS7_EEEEEEPvEEEEEclB8ue170006EPSD_, symObjAddr: 0x12C0, symBinAddr: 0x52C0, symSize: 0x44 }
  - { offsetInCU: 0x28FB3, offset: 0x45C31, size: 0x8, addend: 0x0, symName: __ZNSt3__112__hash_tableINS_17__hash_value_typeIP10mpv_handleNS_10unique_ptrINS_5mutexENS_14default_deleteIS5_EEEEEENS_22__unordered_map_hasherIS3_S9_NS_4hashIS3_EENS_8equal_toIS3_EELb1EEENS_21__unordered_map_equalIS3_S9_SE_SC_Lb1EEENS_9allocatorIS9_EEE11__do_rehashILb1EEEvm, symObjAddr: 0x1168, symBinAddr: 0x5168, symSize: 0x158 }
  - { offsetInCU: 0x29487, offset: 0x46105, size: 0x8, addend: 0x0, symName: __ZNSt3__122__hash_node_destructorINS_9allocatorINS_11__hash_nodeINS_17__hash_value_typeIP10mpv_handleNS_10unique_ptrINS_5mutexENS_14default_deleteIS7_EEEEEEPvEEEEEclB8ue170006EPSD_, symObjAddr: 0x12C0, symBinAddr: 0x52C0, symSize: 0x44 }
  - { offsetInCU: 0x29719, offset: 0x46397, size: 0x8, addend: 0x0, symName: __ZNSt3__110unique_ptrINS_18condition_variableENS_14default_deleteIS1_EEE5resetB8ue170006EPS1_, symObjAddr: 0x13F0, symBinAddr: 0x53F0, symSize: 0x2C }
  - { offsetInCU: 0x29BDE, offset: 0x4685C, size: 0x8, addend: 0x0, symName: __ZNSt3__112__hash_tableINS_17__hash_value_typeIP10mpv_handleNS_10unique_ptrINS_18condition_variableENS_14default_deleteIS5_EEEEEENS_22__unordered_map_hasherIS3_S9_NS_4hashIS3_EENS_8equal_toIS3_EELb1EEENS_21__unordered_map_equalIS3_S9_SE_SC_Lb1EEENS_9allocatorIS9_EEE8__rehashILb1EEEvm, symObjAddr: 0x16A0, symBinAddr: 0x56A0, symSize: 0xDC }
  - { offsetInCU: 0x29CD1, offset: 0x4694F, size: 0x8, addend: 0x0, symName: __ZNSt3__122__hash_node_destructorINS_9allocatorINS_11__hash_nodeINS_17__hash_value_typeIP10mpv_handleNS_10unique_ptrINS_18condition_variableENS_14default_deleteIS7_EEEEEEPvEEEEEclB8ue170006EPSD_, symObjAddr: 0x18D4, symBinAddr: 0x58D4, symSize: 0x44 }
  - { offsetInCU: 0x29E88, offset: 0x46B06, size: 0x8, addend: 0x0, symName: __ZNSt3__112__hash_tableINS_17__hash_value_typeIP10mpv_handleNS_10unique_ptrINS_18condition_variableENS_14default_deleteIS5_EEEEEENS_22__unordered_map_hasherIS3_S9_NS_4hashIS3_EENS_8equal_toIS3_EELb1EEENS_21__unordered_map_equalIS3_S9_SE_SC_Lb1EEENS_9allocatorIS9_EEE11__do_rehashILb1EEEvm, symObjAddr: 0x177C, symBinAddr: 0x577C, symSize: 0x158 }
  - { offsetInCU: 0x2A35C, offset: 0x46FDA, size: 0x8, addend: 0x0, symName: __ZNSt3__122__hash_node_destructorINS_9allocatorINS_11__hash_nodeINS_17__hash_value_typeIP10mpv_handleNS_10unique_ptrINS_18condition_variableENS_14default_deleteIS7_EEEEEEPvEEEEEclB8ue170006EPSD_, symObjAddr: 0x18D4, symBinAddr: 0x58D4, symSize: 0x44 }
  - { offsetInCU: 0x2AD60, offset: 0x479DE, size: 0x8, addend: 0x0, symName: __ZNSt3__112basic_stringIcNS_11char_traitsIcEENS_9allocatorIcEEEC2B8ue170006Emc, symObjAddr: 0x20C0, symBinAddr: 0x60C0, symSize: 0x98 }
  - { offsetInCU: 0x2AF9A, offset: 0x47C18, size: 0x8, addend: 0x0, symName: __ZNKSt3__112basic_stringIcNS_11char_traitsIcEENS_9allocatorIcEEE20__throw_length_errorB8ue170006Ev, symObjAddr: 0x2158, symBinAddr: 0x6158, symSize: 0x14 }
  - { offsetInCU: 0x2B0F6, offset: 0x47D74, size: 0x8, addend: 0x0, symName: __ZNKSt3__112basic_stringIcNS_11char_traitsIcEENS_9allocatorIcEEE20__throw_length_errorB8ue170006Ev, symObjAddr: 0x2158, symBinAddr: 0x6158, symSize: 0x14 }
  - { offsetInCU: 0x2B120, offset: 0x47D9E, size: 0x8, addend: 0x0, symName: __ZNSt3__120__throw_length_errorB8ue170006EPKc, symObjAddr: 0x216C, symBinAddr: 0x616C, symSize: 0x50 }
  - { offsetInCU: 0x2B12B, offset: 0x47DA9, size: 0x8, addend: 0x0, symName: __ZNSt12length_errorC1B8ue170006EPKc, symObjAddr: 0x21BC, symBinAddr: 0x61BC, symSize: 0x24 }
  - { offsetInCU: 0x2B250, offset: 0x47ECE, size: 0x8, addend: 0x0, symName: '__ZZN24MediaKitEventLoopHandler8RegisterExPvxENK3$_0clEv', symObjAddr: 0x2284, symBinAddr: 0x6284, symSize: 0x27C }
  - { offsetInCU: 0x2B7BC, offset: 0x4843A, size: 0x8, addend: 0x0, symName: __ZNSt3__110unique_ptrINS_15__thread_structENS_14default_deleteIS1_EEE5resetB8ue170006EPS1_, symObjAddr: 0x25EC, symBinAddr: 0x65EC, symSize: 0x2C }
  - { offsetInCU: 0x2B925, offset: 0x485A3, size: 0x8, addend: 0x0, symName: __ZNSt3__112__hash_tableIP10mpv_handleNS_4hashIS2_EENS_8equal_toIS2_EENS_9allocatorIS2_EEE4findIS2_EENS_15__hash_iteratorIPNS_11__hash_nodeIS2_PvEEEERKT_, symObjAddr: 0x2500, symBinAddr: 0x6500, symSize: 0xEC }
  - { offsetInCU: 0x2B981, offset: 0x485FF, size: 0x8, addend: 0x0, symName: __ZNSt3__112__hash_tableIP10mpv_handleNS_4hashIS2_EENS_8equal_toIS2_EENS_9allocatorIS2_EEE4findIS2_EENS_15__hash_iteratorIPNS_11__hash_nodeIS2_PvEEEERKT_, symObjAddr: 0x2500, symBinAddr: 0x6500, symSize: 0xEC }
  - { offsetInCU: 0x2B99F, offset: 0x4861D, size: 0x8, addend: 0x0, symName: __ZNSt3__112__hash_tableIP10mpv_handleNS_4hashIS2_EENS_8equal_toIS2_EENS_9allocatorIS2_EEE4findIS2_EENS_15__hash_iteratorIPNS_11__hash_nodeIS2_PvEEEERKT_, symObjAddr: 0x2500, symBinAddr: 0x6500, symSize: 0xEC }
  - { offsetInCU: 0x2BB22, offset: 0x487A0, size: 0x8, addend: 0x0, symName: __ZNSt3__110unique_ptrINS_6threadENS_14default_deleteIS1_EEE5resetB8ue170006EPS1_, symObjAddr: 0x2618, symBinAddr: 0x6618, symSize: 0x2C }
  - { offsetInCU: 0x2C095, offset: 0x48D13, size: 0x8, addend: 0x0, symName: __ZNSt3__112__hash_tableINS_17__hash_value_typeIP10mpv_handleNS_10unique_ptrINS_6threadENS_14default_deleteIS5_EEEEEENS_22__unordered_map_hasherIS3_S9_NS_4hashIS3_EENS_8equal_toIS3_EELb1EEENS_21__unordered_map_equalIS3_S9_SE_SC_Lb1EEENS_9allocatorIS9_EEE8__rehashILb1EEEvm, symObjAddr: 0x28C8, symBinAddr: 0x68C8, symSize: 0xDC }
  - { offsetInCU: 0x2C188, offset: 0x48E06, size: 0x8, addend: 0x0, symName: __ZNSt3__122__hash_node_destructorINS_9allocatorINS_11__hash_nodeINS_17__hash_value_typeIP10mpv_handleNS_10unique_ptrINS_6threadENS_14default_deleteIS7_EEEEEEPvEEEEEclB8ue170006EPSD_, symObjAddr: 0x2AFC, symBinAddr: 0x6AFC, symSize: 0x44 }
  - { offsetInCU: 0x2C33F, offset: 0x48FBD, size: 0x8, addend: 0x0, symName: __ZNSt3__112__hash_tableINS_17__hash_value_typeIP10mpv_handleNS_10unique_ptrINS_6threadENS_14default_deleteIS5_EEEEEENS_22__unordered_map_hasherIS3_S9_NS_4hashIS3_EENS_8equal_toIS3_EELb1EEENS_21__unordered_map_equalIS3_S9_SE_SC_Lb1EEENS_9allocatorIS9_EEE11__do_rehashILb1EEEvm, symObjAddr: 0x29A4, symBinAddr: 0x69A4, symSize: 0x158 }
  - { offsetInCU: 0x2C813, offset: 0x49491, size: 0x8, addend: 0x0, symName: __ZNSt3__122__hash_node_destructorINS_9allocatorINS_11__hash_nodeINS_17__hash_value_typeIP10mpv_handleNS_10unique_ptrINS_6threadENS_14default_deleteIS7_EEEEEEPvEEEEEclB8ue170006EPSD_, symObjAddr: 0x2AFC, symBinAddr: 0x6AFC, symSize: 0x44 }
  - { offsetInCU: 0x2CC3A, offset: 0x498B8, size: 0x8, addend: 0x0, symName: __ZNSt3__112__hash_tableIP10mpv_handleNS_4hashIS2_EENS_8equal_toIS2_EENS_9allocatorIS2_EEE8__rehashILb1EEEvm, symObjAddr: 0x2D90, symBinAddr: 0x6D90, symSize: 0xDC }
  - { offsetInCU: 0x2CD2D, offset: 0x499AB, size: 0x8, addend: 0x0, symName: __ZNSt3__112__hash_tableIP10mpv_handleNS_4hashIS2_EENS_8equal_toIS2_EENS_9allocatorIS2_EEE11__do_rehashILb1EEEvm, symObjAddr: 0x2E6C, symBinAddr: 0x6E6C, symSize: 0x158 }
  - { offsetInCU: 0x2D201, offset: 0x49E7F, size: 0x8, addend: 0x0, symName: __ZNSt3__112__hash_tableINS_17__hash_value_typeIP10mpv_handleNS_10unique_ptrINS_6threadENS_14default_deleteIS5_EEEEEENS_22__unordered_map_hasherIS3_S9_NS_4hashIS3_EENS_8equal_toIS3_EELb1EEENS_21__unordered_map_equalIS3_S9_SE_SC_Lb1EEENS_9allocatorIS9_EEE25__emplace_unique_key_argsIS3_JRKNS_21piecewise_construct_tENS_5tupleIJRKS3_EEENSP_IJEEEEEENS_4pairINS_15__hash_iteratorIPNS_11__hash_nodeIS9_PvEEEEbEERKT_DpOT0_, symObjAddr: 0x2FC4, symBinAddr: 0x6FC4, symSize: 0x284 }
  - { offsetInCU: 0x2D68B, offset: 0x4A309, size: 0x8, addend: 0x0, symName: __ZNSt3__112__hash_tableINS_17__hash_value_typeIP10mpv_handleNS_10unique_ptrINS_5mutexENS_14default_deleteIS5_EEEEEENS_22__unordered_map_hasherIS3_S9_NS_4hashIS3_EENS_8equal_toIS3_EELb1EEENS_21__unordered_map_equalIS3_S9_SE_SC_Lb1EEENS_9allocatorIS9_EEE14__erase_uniqueIS3_EEmRKT_, symObjAddr: 0x3354, symBinAddr: 0x7354, symSize: 0x34 }
  - { offsetInCU: 0x2D715, offset: 0x4A393, size: 0x8, addend: 0x0, symName: __ZNSt3__112__hash_tableINS_17__hash_value_typeIP10mpv_handleNS_10unique_ptrINS_6threadENS_14default_deleteIS5_EEEEEENS_22__unordered_map_hasherIS3_S9_NS_4hashIS3_EENS_8equal_toIS3_EELb1EEENS_21__unordered_map_equalIS3_S9_SE_SC_Lb1EEENS_9allocatorIS9_EEE14__erase_uniqueIS3_EEmRKT_, symObjAddr: 0x3514, symBinAddr: 0x7514, symSize: 0x34 }
  - { offsetInCU: 0x2D79F, offset: 0x4A41D, size: 0x8, addend: 0x0, symName: __ZNSt3__112__hash_tableINS_17__hash_value_typeIP10mpv_handleNS_10unique_ptrINS_18condition_variableENS_14default_deleteIS5_EEEEEENS_22__unordered_map_hasherIS3_S9_NS_4hashIS3_EENS_8equal_toIS3_EELb1EEENS_21__unordered_map_equalIS3_S9_SE_SC_Lb1EEENS_9allocatorIS9_EEE14__erase_uniqueIS3_EEmRKT_, symObjAddr: 0x37C0, symBinAddr: 0x77C0, symSize: 0x34 }
  - { offsetInCU: 0x2D829, offset: 0x4A4A7, size: 0x8, addend: 0x0, symName: __ZNSt3__112__hash_tableIP10mpv_handleNS_4hashIS2_EENS_8equal_toIS2_EENS_9allocatorIS2_EEE14__erase_uniqueIS2_EEmRKT_, symObjAddr: 0x3980, symBinAddr: 0x7980, symSize: 0x34 }
  - { offsetInCU: 0x2D998, offset: 0x4A616, size: 0x8, addend: 0x0, symName: __ZNSt3__112__hash_tableINS_17__hash_value_typeIP10mpv_handleNS_10unique_ptrINS_5mutexENS_14default_deleteIS5_EEEEEENS_22__unordered_map_hasherIS3_S9_NS_4hashIS3_EENS_8equal_toIS3_EELb1EEENS_21__unordered_map_equalIS3_S9_SE_SC_Lb1EEENS_9allocatorIS9_EEE5eraseENS_21__hash_const_iteratorIPNS_11__hash_nodeIS9_PvEEEE, symObjAddr: 0x3388, symBinAddr: 0x7388, symSize: 0x58 }
  - { offsetInCU: 0x2DC92, offset: 0x4A910, size: 0x8, addend: 0x0, symName: __ZNSt3__112__hash_tableINS_17__hash_value_typeIP10mpv_handleNS_10unique_ptrINS_5mutexENS_14default_deleteIS5_EEEEEENS_22__unordered_map_hasherIS3_S9_NS_4hashIS3_EENS_8equal_toIS3_EELb1EEENS_21__unordered_map_equalIS3_S9_SE_SC_Lb1EEENS_9allocatorIS9_EEE6removeENS_21__hash_const_iteratorIPNS_11__hash_nodeIS9_PvEEEE, symObjAddr: 0x33E0, symBinAddr: 0x73E0, symSize: 0x134 }
  - { offsetInCU: 0x2DD0C, offset: 0x4A98A, size: 0x8, addend: 0x0, symName: __ZNSt3__112__hash_tableINS_17__hash_value_typeIP10mpv_handleNS_10unique_ptrINS_5mutexENS_14default_deleteIS5_EEEEEENS_22__unordered_map_hasherIS3_S9_NS_4hashIS3_EENS_8equal_toIS3_EELb1EEENS_21__unordered_map_equalIS3_S9_SE_SC_Lb1EEENS_9allocatorIS9_EEE6removeENS_21__hash_const_iteratorIPNS_11__hash_nodeIS9_PvEEEE, symObjAddr: 0x33E0, symBinAddr: 0x73E0, symSize: 0x134 }
  - { offsetInCU: 0x2DD2A, offset: 0x4A9A8, size: 0x8, addend: 0x0, symName: __ZNSt3__112__hash_tableINS_17__hash_value_typeIP10mpv_handleNS_10unique_ptrINS_5mutexENS_14default_deleteIS5_EEEEEENS_22__unordered_map_hasherIS3_S9_NS_4hashIS3_EENS_8equal_toIS3_EELb1EEENS_21__unordered_map_equalIS3_S9_SE_SC_Lb1EEENS_9allocatorIS9_EEE6removeENS_21__hash_const_iteratorIPNS_11__hash_nodeIS9_PvEEEE, symObjAddr: 0x33E0, symBinAddr: 0x73E0, symSize: 0x134 }
  - { offsetInCU: 0x2DFC3, offset: 0x4AC41, size: 0x8, addend: 0x0, symName: __ZNSt3__112__hash_tableINS_17__hash_value_typeIP10mpv_handleNS_10unique_ptrINS_6threadENS_14default_deleteIS5_EEEEEENS_22__unordered_map_hasherIS3_S9_NS_4hashIS3_EENS_8equal_toIS3_EELb1EEENS_21__unordered_map_equalIS3_S9_SE_SC_Lb1EEENS_9allocatorIS9_EEE5eraseENS_21__hash_const_iteratorIPNS_11__hash_nodeIS9_PvEEEE, symObjAddr: 0x3634, symBinAddr: 0x7634, symSize: 0x58 }
  - { offsetInCU: 0x2E2BD, offset: 0x4AF3B, size: 0x8, addend: 0x0, symName: __ZNSt3__112__hash_tableINS_17__hash_value_typeIP10mpv_handleNS_10unique_ptrINS_6threadENS_14default_deleteIS5_EEEEEENS_22__unordered_map_hasherIS3_S9_NS_4hashIS3_EENS_8equal_toIS3_EELb1EEENS_21__unordered_map_equalIS3_S9_SE_SC_Lb1EEENS_9allocatorIS9_EEE6removeENS_21__hash_const_iteratorIPNS_11__hash_nodeIS9_PvEEEE, symObjAddr: 0x368C, symBinAddr: 0x768C, symSize: 0x134 }
  - { offsetInCU: 0x2E337, offset: 0x4AFB5, size: 0x8, addend: 0x0, symName: __ZNSt3__112__hash_tableINS_17__hash_value_typeIP10mpv_handleNS_10unique_ptrINS_6threadENS_14default_deleteIS5_EEEEEENS_22__unordered_map_hasherIS3_S9_NS_4hashIS3_EENS_8equal_toIS3_EELb1EEENS_21__unordered_map_equalIS3_S9_SE_SC_Lb1EEENS_9allocatorIS9_EEE6removeENS_21__hash_const_iteratorIPNS_11__hash_nodeIS9_PvEEEE, symObjAddr: 0x368C, symBinAddr: 0x768C, symSize: 0x134 }
  - { offsetInCU: 0x2E355, offset: 0x4AFD3, size: 0x8, addend: 0x0, symName: __ZNSt3__112__hash_tableINS_17__hash_value_typeIP10mpv_handleNS_10unique_ptrINS_6threadENS_14default_deleteIS5_EEEEEENS_22__unordered_map_hasherIS3_S9_NS_4hashIS3_EENS_8equal_toIS3_EELb1EEENS_21__unordered_map_equalIS3_S9_SE_SC_Lb1EEENS_9allocatorIS9_EEE6removeENS_21__hash_const_iteratorIPNS_11__hash_nodeIS9_PvEEEE, symObjAddr: 0x368C, symBinAddr: 0x768C, symSize: 0x134 }
  - { offsetInCU: 0x2E5EE, offset: 0x4B26C, size: 0x8, addend: 0x0, symName: __ZNSt3__112__hash_tableINS_17__hash_value_typeIP10mpv_handleNS_10unique_ptrINS_18condition_variableENS_14default_deleteIS5_EEEEEENS_22__unordered_map_hasherIS3_S9_NS_4hashIS3_EENS_8equal_toIS3_EELb1EEENS_21__unordered_map_equalIS3_S9_SE_SC_Lb1EEENS_9allocatorIS9_EEE5eraseENS_21__hash_const_iteratorIPNS_11__hash_nodeIS9_PvEEEE, symObjAddr: 0x37F4, symBinAddr: 0x77F4, symSize: 0x58 }
  - { offsetInCU: 0x2E8E8, offset: 0x4B566, size: 0x8, addend: 0x0, symName: __ZNSt3__112__hash_tableINS_17__hash_value_typeIP10mpv_handleNS_10unique_ptrINS_18condition_variableENS_14default_deleteIS5_EEEEEENS_22__unordered_map_hasherIS3_S9_NS_4hashIS3_EENS_8equal_toIS3_EELb1EEENS_21__unordered_map_equalIS3_S9_SE_SC_Lb1EEENS_9allocatorIS9_EEE6removeENS_21__hash_const_iteratorIPNS_11__hash_nodeIS9_PvEEEE, symObjAddr: 0x384C, symBinAddr: 0x784C, symSize: 0x134 }
  - { offsetInCU: 0x2E962, offset: 0x4B5E0, size: 0x8, addend: 0x0, symName: __ZNSt3__112__hash_tableINS_17__hash_value_typeIP10mpv_handleNS_10unique_ptrINS_18condition_variableENS_14default_deleteIS5_EEEEEENS_22__unordered_map_hasherIS3_S9_NS_4hashIS3_EENS_8equal_toIS3_EELb1EEENS_21__unordered_map_equalIS3_S9_SE_SC_Lb1EEENS_9allocatorIS9_EEE6removeENS_21__hash_const_iteratorIPNS_11__hash_nodeIS9_PvEEEE, symObjAddr: 0x384C, symBinAddr: 0x784C, symSize: 0x134 }
  - { offsetInCU: 0x2E980, offset: 0x4B5FE, size: 0x8, addend: 0x0, symName: __ZNSt3__112__hash_tableINS_17__hash_value_typeIP10mpv_handleNS_10unique_ptrINS_18condition_variableENS_14default_deleteIS5_EEEEEENS_22__unordered_map_hasherIS3_S9_NS_4hashIS3_EENS_8equal_toIS3_EELb1EEENS_21__unordered_map_equalIS3_S9_SE_SC_Lb1EEENS_9allocatorIS9_EEE6removeENS_21__hash_const_iteratorIPNS_11__hash_nodeIS9_PvEEEE, symObjAddr: 0x384C, symBinAddr: 0x784C, symSize: 0x134 }
  - { offsetInCU: 0x2EC19, offset: 0x4B897, size: 0x8, addend: 0x0, symName: __ZNSt3__112__hash_tableIP10mpv_handleNS_4hashIS2_EENS_8equal_toIS2_EENS_9allocatorIS2_EEE5eraseENS_21__hash_const_iteratorIPNS_11__hash_nodeIS2_PvEEEE, symObjAddr: 0x39B4, symBinAddr: 0x79B4, symSize: 0x40 }
  - { offsetInCU: 0x2EE30, offset: 0x4BAAE, size: 0x8, addend: 0x0, symName: __ZNSt3__112__hash_tableIP10mpv_handleNS_4hashIS2_EENS_8equal_toIS2_EENS_9allocatorIS2_EEE6removeENS_21__hash_const_iteratorIPNS_11__hash_nodeIS2_PvEEEE, symObjAddr: 0x39F4, symBinAddr: 0x79F4, symSize: 0x134 }
  - { offsetInCU: 0x2EEAA, offset: 0x4BB28, size: 0x8, addend: 0x0, symName: __ZNSt3__112__hash_tableIP10mpv_handleNS_4hashIS2_EENS_8equal_toIS2_EENS_9allocatorIS2_EEE6removeENS_21__hash_const_iteratorIPNS_11__hash_nodeIS2_PvEEEE, symObjAddr: 0x39F4, symBinAddr: 0x79F4, symSize: 0x134 }
  - { offsetInCU: 0x2EEC8, offset: 0x4BB46, size: 0x8, addend: 0x0, symName: __ZNSt3__112__hash_tableIP10mpv_handleNS_4hashIS2_EENS_8equal_toIS2_EENS_9allocatorIS2_EEE6removeENS_21__hash_const_iteratorIPNS_11__hash_nodeIS2_PvEEEE, symObjAddr: 0x39F4, symBinAddr: 0x79F4, symSize: 0x134 }
  - { offsetInCU: 0x2F325, offset: 0x4BFA3, size: 0x8, addend: 0x0, symName: __ZNSt3__112__hash_tableINS_17__hash_value_typeIP10mpv_handleNS_10unique_ptrINS_5mutexENS_14default_deleteIS5_EEEEEENS_22__unordered_map_hasherIS3_S9_NS_4hashIS3_EENS_8equal_toIS3_EELb1EEENS_21__unordered_map_equalIS3_S9_SE_SC_Lb1EEENS_9allocatorIS9_EEE17__deallocate_nodeEPNS_16__hash_node_baseIPNS_11__hash_nodeIS9_PvEEEE, symObjAddr: 0x3BA8, symBinAddr: 0x7BA8, symSize: 0x40 }
  - { offsetInCU: 0x2F57A, offset: 0x4C1F8, size: 0x8, addend: 0x0, symName: __ZNSt3__112__hash_tableINS_17__hash_value_typeIP10mpv_handleNS_10unique_ptrINS_6threadENS_14default_deleteIS5_EEEEEENS_22__unordered_map_hasherIS3_S9_NS_4hashIS3_EENS_8equal_toIS3_EELb1EEENS_21__unordered_map_equalIS3_S9_SE_SC_Lb1EEENS_9allocatorIS9_EEE17__deallocate_nodeEPNS_16__hash_node_baseIPNS_11__hash_nodeIS9_PvEEEE, symObjAddr: 0x3C20, symBinAddr: 0x7C20, symSize: 0x40 }
  - { offsetInCU: 0x2F7CF, offset: 0x4C44D, size: 0x8, addend: 0x0, symName: __ZNSt3__112__hash_tableINS_17__hash_value_typeIP10mpv_handleNS_10unique_ptrINS_18condition_variableENS_14default_deleteIS5_EEEEEENS_22__unordered_map_hasherIS3_S9_NS_4hashIS3_EENS_8equal_toIS3_EELb1EEENS_21__unordered_map_equalIS3_S9_SE_SC_Lb1EEENS_9allocatorIS9_EEE17__deallocate_nodeEPNS_16__hash_node_baseIPNS_11__hash_nodeIS9_PvEEEE, symObjAddr: 0x3C98, symBinAddr: 0x7C98, symSize: 0x40 }
  - { offsetInCU: 0x26, offset: 0x4C746, size: 0x8, addend: 0x0, symName: _env_buf_alloc, symObjAddr: 0x0, symBinAddr: 0x7D20, symSize: 0xC }
  - { offsetInCU: 0x4E, offset: 0x4C76E, size: 0x8, addend: 0x0, symName: _env_key, symObjAddr: 0x2430, symBinAddr: 0xC410, symSize: 0x0 }
  - { offsetInCU: 0x6B, offset: 0x4C78B, size: 0x8, addend: 0x0, symName: _entry, symObjAddr: 0x2438, symBinAddr: 0xC418, symSize: 0x0 }
  - { offsetInCU: 0xD4, offset: 0x4C7F4, size: 0x8, addend: 0x0, symName: _once, symObjAddr: 0x310, symBinAddr: 0xC318, symSize: 0x0 }
  - { offsetInCU: 0xEA, offset: 0x4C80A, size: 0x8, addend: 0x0, symName: _old_sa, symObjAddr: 0x2440, symBinAddr: 0xC420, symSize: 0x0 }
  - { offsetInCU: 0x167, offset: 0x4C887, size: 0x8, addend: 0x0, symName: _env_buf_alloc, symObjAddr: 0x0, symBinAddr: 0x7D20, symSize: 0xC }
  - { offsetInCU: 0x181, offset: 0x4C8A1, size: 0x8, addend: 0x0, symName: _env_buf_free, symObjAddr: 0xC, symBinAddr: 0x7D2C, symSize: 0x4 }
  - { offsetInCU: 0x19E, offset: 0x4C8BE, size: 0x8, addend: 0x0, symName: _env_buf_cur, symObjAddr: 0x10, symBinAddr: 0x7D30, symSize: 0xC }
  - { offsetInCU: 0x1D4, offset: 0x4C8F4, size: 0x8, addend: 0x0, symName: _env_buf_get, symObjAddr: 0x1C, symBinAddr: 0x7D3C, symSize: 0x4 }
  - { offsetInCU: 0x20A, offset: 0x4C92A, size: 0x8, addend: 0x0, symName: _env_buf_push, symObjAddr: 0x20, symBinAddr: 0x7D40, symSize: 0x34 }
  - { offsetInCU: 0x2AE, offset: 0x4C9CE, size: 0x8, addend: 0x0, symName: _env_buf_pop, symObjAddr: 0x54, symBinAddr: 0x7D74, symSize: 0x48 }
  - { offsetInCU: 0x345, offset: 0x4CA65, size: 0x8, addend: 0x0, symName: _signal_catch_init, symObjAddr: 0x9C, symBinAddr: 0x7DBC, symSize: 0x14 }
  - { offsetInCU: 0x38D, offset: 0x4CAAD, size: 0x8, addend: 0x0, symName: _signal_info, symObjAddr: 0xB0, symBinAddr: 0x7DD0, symSize: 0x30 }
  - { offsetInCU: 0x3DB, offset: 0x4CAFB, size: 0x8, addend: 0x0, symName: _signal_name, symObjAddr: 0xE0, symBinAddr: 0x7E00, symSize: 0x44 }
  - { offsetInCU: 0x463, offset: 0x4CB83, size: 0x8, addend: 0x0, symName: _try_catch_init, symObjAddr: 0x124, symBinAddr: 0x7E44, symSize: 0x130 }
  - { offsetInCU: 0x676, offset: 0x4CD96, size: 0x8, addend: 0x0, symName: _signal_handler, symObjAddr: 0x254, symBinAddr: 0x7F74, symSize: 0xBC }
...
